target datalayout = "e-m:e-p270:32:32-p271:32:32-p272:64:64-i64:64-i128:128-f80:128-n8:16:32:64-S128"
target triple = "x86_64-pc-linux-gnu"

; Function Attrs: inlinehint mustprogress nounwind uwtable
define linkonce_odr noundef float @_ZSt4fabsf(float noundef %0) #4 comdat {
  %2 = alloca float, align 4
  store float %0, ptr %2, align 4, !tbaa !50
  %3 = load float, ptr %2, align 4, !tbaa !50
  %4 = call float @llvm.fabs.f32(float %3)
  ret float %4
}

; Function Attrs: inlinehint mustprogress nounwind uwtable
define linkonce_odr noundef nonnull align 4 dereferenceable(4) ptr @_ZSt3minIfERKT_S2_S2_(ptr noundef nonnull align 4 dereferenceable(4) %0, ptr noundef nonnull align 4 dereferenceable(4) %1) #4 comdat {
  %3 = alloca ptr, align 8
  %4 = alloca ptr, align 8
  %5 = alloca ptr, align 8
  store ptr %0, ptr %4, align 8, !tbaa !48
  store ptr %1, ptr %5, align 8, !tbaa !48
  %6 = load ptr, ptr %5, align 8, !tbaa !48
  %7 = load float, ptr %6, align 4, !tbaa !50
  %8 = load ptr, ptr %4, align 8, !tbaa !48
  %9 = load float, ptr %8, align 4, !tbaa !50
  %10 = fcmp olt float %7, %9
  br i1 %10, label %11, label %13

11:                                               ; preds = %2
  %12 = load ptr, ptr %5, align 8, !tbaa !48
  store ptr %12, ptr %3, align 8
  br label %15

13:                                               ; preds = %2
  %14 = load ptr, ptr %4, align 8, !tbaa !48
  store ptr %14, ptr %3, align 8
  br label %15

15:                                               ; preds = %13, %11
  %16 = load ptr, ptr %3, align 8
  ret ptr %16
}

; Function Attrs: inlinehint mustprogress nounwind uwtable
define internal noundef float @_ZL5norm2PKf(ptr noundef %0) #4 {
  %2 = alloca ptr, align 8
  store ptr %0, ptr %2, align 8, !tbaa !48
  %3 = load ptr, ptr %2, align 8, !tbaa !48
  %4 = getelementptr inbounds float, ptr %3, i64 0
  %5 = load float, ptr %4, align 4, !tbaa !50
  %6 = load ptr, ptr %2, align 8, !tbaa !48
  %7 = getelementptr inbounds float, ptr %6, i64 0
  %8 = load float, ptr %7, align 4, !tbaa !50
  %9 = load ptr, ptr %2, align 8, !tbaa !48
  %10 = getelementptr inbounds float, ptr %9, i64 1
  %11 = load float, ptr %10, align 4, !tbaa !50
  %12 = load ptr, ptr %2, align 8, !tbaa !48
  %13 = getelementptr inbounds float, ptr %12, i64 1
  %14 = load float, ptr %13, align 4, !tbaa !50
  %15 = fmul float %11, %14
  %16 = call float @llvm.fmuladd.f32(float %5, float %8, float %15)
  %17 = load ptr, ptr %2, align 8, !tbaa !48
  %18 = getelementptr inbounds float, ptr %17, i64 2
  %19 = load float, ptr %18, align 4, !tbaa !50
  %20 = load ptr, ptr %2, align 8, !tbaa !48
  %21 = getelementptr inbounds float, ptr %20, i64 2
  %22 = load float, ptr %21, align 4, !tbaa !50
  %23 = call float @llvm.fmuladd.f32(float %19, float %22, float %16)
  ret float %23
}

; Function Attrs: mustprogress uwtable
define noundef float @_Z11max_cutoff27PbcTypePA3_Kf(i32 noundef %0, ptr noundef %1) #3 {
  %3 = alloca i32, align 4
  %4 = alloca ptr, align 8
  %5 = alloca float, align 4
  %6 = alloca float, align 4
  %7 = alloca float, align 4
  %8 = alloca float, align 4
  %9 = alloca float, align 4
  %10 = alloca float, align 4
  %11 = alloca float, align 4
  %12 = alloca float, align 4
  store i32 %0, ptr %3, align 4, !tbaa !34
  store ptr %1, ptr %4, align 8, !tbaa !48
  call void @llvm.lifetime.start.p0(i64 4, ptr %5) #5
  call void @llvm.lifetime.start.p0(i64 4, ptr %6) #5
  call void @llvm.lifetime.start.p0(i64 4, ptr %7) #5
  store float 2.500000e-01, ptr %7, align 4, !tbaa !50
  call void @llvm.lifetime.start.p0(i64 4, ptr %8) #5
  %13 = load ptr, ptr %4, align 8, !tbaa !48
  %14 = getelementptr inbounds [3 x float], ptr %13, i64 0
  %15 = getelementptr inbounds [3 x float], ptr %14, i64 0, i64 0
  %16 = call noundef float @_ZL5norm2PKf(ptr noundef %15)
  store float %16, ptr %8, align 4, !tbaa !50
  call void @llvm.lifetime.start.p0(i64 4, ptr %9) #5
  %17 = load ptr, ptr %4, align 8, !tbaa !48
  %18 = getelementptr inbounds [3 x float], ptr %17, i64 1
  %19 = getelementptr inbounds [3 x float], ptr %18, i64 0, i64 0
  %20 = call noundef float @_ZL5norm2PKf(ptr noundef %19)
  store float %20, ptr %9, align 4, !tbaa !50
  %21 = call noundef nonnull align 4 dereferenceable(4) ptr @_ZSt3minIfERKT_S2_S2_(ptr noundef nonnull align 4 dereferenceable(4) %8, ptr noundef nonnull align 4 dereferenceable(4) %9)
  %22 = load float, ptr %21, align 4, !tbaa !50
  %23 = fmul float 2.500000e-01, %22
  store float %23, ptr %5, align 4, !tbaa !50
  call void @llvm.lifetime.end.p0(i64 4, ptr %9) #5
  call void @llvm.lifetime.end.p0(i64 4, ptr %8) #5
  %24 = load i32, ptr %3, align 4, !tbaa !34
  %25 = icmp ne i32 %24, 2
  br i1 %25, label %26, label %34

26:                                               ; preds = %2
  call void @llvm.lifetime.start.p0(i64 4, ptr %10) #5
  %27 = load ptr, ptr %4, align 8, !tbaa !48
  %28 = getelementptr inbounds [3 x float], ptr %27, i64 2
  %29 = getelementptr inbounds [3 x float], ptr %28, i64 0, i64 0
  %30 = call noundef float @_ZL5norm2PKf(ptr noundef %29)
  %31 = fmul float 2.500000e-01, %30
  store float %31, ptr %10, align 4, !tbaa !50
  %32 = call noundef nonnull align 4 dereferenceable(4) ptr @_ZSt3minIfERKT_S2_S2_(ptr noundef nonnull align 4 dereferenceable(4) %5, ptr noundef nonnull align 4 dereferenceable(4) %10)
  %33 = load float, ptr %32, align 4, !tbaa !50
  store float %33, ptr %5, align 4, !tbaa !50
  call void @llvm.lifetime.end.p0(i64 4, ptr %10) #5
  br label %34

34:                                               ; preds = %26, %2
  %35 = load i32, ptr %3, align 4, !tbaa !34
  %36 = icmp eq i32 %35, 2
  br i1 %36, label %37, label %46

37:                                               ; preds = %34
  %38 = load ptr, ptr %4, align 8, !tbaa !48
  %39 = getelementptr inbounds [3 x float], ptr %38, i64 0
  %40 = getelementptr inbounds [3 x float], ptr %39, i64 0, i64 0
  %41 = load ptr, ptr %4, align 8, !tbaa !48
  %42 = getelementptr inbounds [3 x float], ptr %41, i64 1
  %43 = getelementptr inbounds [3 x float], ptr %42, i64 0, i64 1
  %44 = call noundef nonnull align 4 dereferenceable(4) ptr @_ZSt3minIfERKT_S2_S2_(ptr noundef nonnull align 4 dereferenceable(4) %40, ptr noundef nonnull align 4 dereferenceable(4) %43)
  %45 = load float, ptr %44, align 4, !tbaa !50
  store float %45, ptr %6, align 4, !tbaa !50
  br label %66

46:                                               ; preds = %34
  %47 = load ptr, ptr %4, align 8, !tbaa !48
  %48 = getelementptr inbounds [3 x float], ptr %47, i64 0
  %49 = getelementptr inbounds [3 x float], ptr %48, i64 0, i64 0
  call void @llvm.lifetime.start.p0(i64 4, ptr %11) #5
  %50 = load ptr, ptr %4, align 8, !tbaa !48
  %51 = getelementptr inbounds [3 x float], ptr %50, i64 1
  %52 = getelementptr inbounds [3 x float], ptr %51, i64 0, i64 1
  %53 = load float, ptr %52, align 4, !tbaa !50
  %54 = load ptr, ptr %4, align 8, !tbaa !48
  %55 = getelementptr inbounds [3 x float], ptr %54, i64 2
  %56 = getelementptr inbounds [3 x float], ptr %55, i64 0, i64 1
  %57 = load float, ptr %56, align 4, !tbaa !50
  %58 = call noundef float @_ZSt4fabsf(float noundef %57)
  %59 = fsub float %53, %58
  store float %59, ptr %11, align 4, !tbaa !50
  %60 = load ptr, ptr %4, align 8, !tbaa !48
  %61 = getelementptr inbounds [3 x float], ptr %60, i64 2
  %62 = getelementptr inbounds [3 x float], ptr %61, i64 0, i64 2
  %63 = call noundef nonnull align 4 dereferenceable(4) ptr @_ZSt3minIfERKT_S2_S2_(ptr noundef nonnull align 4 dereferenceable(4) %11, ptr noundef nonnull align 4 dereferenceable(4) %62)
  %64 = call noundef nonnull align 4 dereferenceable(4) ptr @_ZSt3minIfERKT_S2_S2_(ptr noundef nonnull align 4 dereferenceable(4) %49, ptr noundef nonnull align 4 dereferenceable(4) %63)
  %65 = load float, ptr %64, align 4, !tbaa !50
  store float %65, ptr %6, align 4, !tbaa !50
  call void @llvm.lifetime.end.p0(i64 4, ptr %11) #5
  br label %66

66:                                               ; preds = %46, %37
  call void @llvm.lifetime.start.p0(i64 4, ptr %12) #5
  %67 = load float, ptr %6, align 4, !tbaa !50
  %68 = load float, ptr %6, align 4, !tbaa !50
  %69 = fmul float %67, %68
  store float %69, ptr %12, align 4, !tbaa !50
  %70 = call noundef nonnull align 4 dereferenceable(4) ptr @_ZSt3minIfERKT_S2_S2_(ptr noundef nonnull align 4 dereferenceable(4) %5, ptr noundef nonnull align 4 dereferenceable(4) %12)
  %71 = load float, ptr %70, align 4, !tbaa !50
  call void @llvm.lifetime.end.p0(i64 4, ptr %12) #5
  call void @llvm.lifetime.end.p0(i64 4, ptr %7) #5
  call void @llvm.lifetime.end.p0(i64 4, ptr %6) #5
  call void @llvm.lifetime.end.p0(i64 4, ptr %5) #5
  ret float %71
}