; Function Attrs: mustprogress nofree norecurse nosync nounwind willreturn memory(argmem: read) uwtable
define noundef float @_Z11max_cutoff27PbcTypePA3_Kf(i32 noundef %0, ptr noundef readonly captures(none) %1) local_unnamed_addr #15 {
  %3 = load float, ptr %1, align 4, !tbaa !21
  %4 = getelementptr inbounds nuw i8, ptr %1, i64 4
  %5 = load float, ptr %4, align 4, !tbaa !21
  %6 = fmul float %5, %5
  %7 = tail call float @llvm.fmuladd.f32(float %3, float %3, float %6)
  %8 = getelementptr inbounds nuw i8, ptr %1, i64 8
  %9 = load float, ptr %8, align 4, !tbaa !21
  %10 = tail call noundef float @llvm.fmuladd.f32(float %9, float %9, float %7)
  %11 = getelementptr inbounds nuw i8, ptr %1, i64 12
  %12 = load float, ptr %11, align 4, !tbaa !21
  %13 = getelementptr inbounds nuw i8, ptr %1, i64 16
  %14 = load float, ptr %13, align 4, !tbaa !21
  %15 = fmul float %14, %14
  %16 = tail call float @llvm.fmuladd.f32(float %12, float %12, float %15)
  %17 = getelementptr inbounds nuw i8, ptr %1, i64 20
  %18 = load float, ptr %17, align 4, !tbaa !21
  %19 = tail call noundef float @llvm.fmuladd.f32(float %18, float %18, float %16)
  %20 = fcmp olt float %19, %10
  %.sroa.speculated23 = select i1 %20, float %19, float %10
  %21 = fmul float %.sroa.speculated23, 2.500000e-01
  %cond = icmp eq i32 %0, 2
  br i1 %cond, label %38, label %22

22:                                               ; preds = %2
  %23 = getelementptr inbounds nuw i8, ptr %1, i64 24
  %24 = load float, ptr %23, align 4, !tbaa !21
  %25 = getelementptr inbounds nuw i8, ptr %1, i64 28
  %26 = load float, ptr %25, align 4, !tbaa !21
  %27 = fmul float %26, %26
  %28 = tail call float @llvm.fmuladd.f32(float %24, float %24, float %27)
  %29 = getelementptr inbounds nuw i8, ptr %1, i64 32
  %30 = load float, ptr %29, align 4, !tbaa !21
  %31 = tail call noundef float @llvm.fmuladd.f32(float %30, float %30, float %28)
  %32 = fmul float %31, 2.500000e-01
  %33 = fcmp olt float %32, %21
  %.sroa.speculated19 = select i1 %33, float %32, float %21
  %34 = tail call noundef float @llvm.fabs.f32(float %26)
  %35 = fsub float %14, %34
  %36 = fcmp olt float %30, %35
  %.val = load float, ptr %29, align 4
  %37 = select i1 %36, float %.val, float %35
  br label %38

38:                                               ; preds = %2, %22
  %.sink31 = phi float [ %37, %22 ], [ %14, %2 ]
  %.028 = phi float [ %.sroa.speculated19, %22 ], [ %21, %2 ]
  %39 = fcmp olt float %.sink31, %3
  %40 = select i1 %39, float %.sink31, float %3
  %41 = fmul float %40, %40
  %42 = fcmp olt float %41, %.028
  %.sroa.speculated = select i1 %42, float %41, float %.028
  ret float %.sroa.speculated
}